target datalayout = "e-m:e-p270:32:32-p271:32:32-p272:64:64-i64:64-i128:128-f80:128-n8:16:32:64-S128"
target triple = "x86_64-pc-linux-gnu"

%struct.SimpleStringList = type { ptr, ptr }
%struct.PQExpBufferData = type { ptr, i64, i64 }
%struct.SimpleStringListCell = type { ptr, i8, [0 x i8] }

@.str.635 = private unnamed_addr constant [52 x i8] c"improper qualified name (too many dotted names): %s\00", align 1
@.str.642 = private unnamed_addr constant [48 x i8] c"SELECT oid FROM pg_catalog.pg_foreign_server s\0A\00", align 1
@.str.643 = private unnamed_addr constant [10 x i8] c"s.srvname\00", align 1
@.str.644 = private unnamed_addr constant [56 x i8] c"no matching foreign servers were found for pattern \22%s\22\00", align 1

; Function Attrs: nounwind uwtable
define internal void @expand_foreign_server_name_patterns(ptr noundef %0, ptr noundef %1, ptr noundef %2) #0 {
  %4 = alloca ptr, align 8
  %5 = alloca ptr, align 8
  %6 = alloca ptr, align 8
  %7 = alloca ptr, align 8
  %8 = alloca ptr, align 8
  %9 = alloca ptr, align 8
  %10 = alloca i32, align 4
  %11 = alloca i32, align 4
  %12 = alloca i32, align 4
  store ptr %0, ptr %4, align 8
  store ptr %1, ptr %5, align 8
  store ptr %2, ptr %6, align 8
  call void @llvm.lifetime.start.p0(i64 8, ptr %7) #10
  call void @llvm.lifetime.start.p0(i64 8, ptr %8) #10
  call void @llvm.lifetime.start.p0(i64 8, ptr %9) #10
  call void @llvm.lifetime.start.p0(i64 4, ptr %10) #10
  %13 = load ptr, ptr %5, align 8
  %14 = getelementptr inbounds nuw %struct.SimpleStringList, ptr %13, i32 0, i32 0
  %15 = load ptr, ptr %14, align 8
  %16 = icmp eq ptr %15, null
  br i1 %16, label %17, label %18

17:                                               ; preds = %3
  store i32 1, ptr %11, align 4
  br label %85

18:                                               ; preds = %3
  %19 = call ptr @createPQExpBuffer()
  store ptr %19, ptr %7, align 8
  %20 = load ptr, ptr %5, align 8
  %21 = getelementptr inbounds nuw %struct.SimpleStringList, ptr %20, i32 0, i32 0
  %22 = load ptr, ptr %21, align 8
  store ptr %22, ptr %9, align 8
  br label %23

23:                                               ; preds = %79, %18
  %24 = load ptr, ptr %9, align 8
  %25 = icmp ne ptr %24, null
  br i1 %25, label %26, label %83

26:                                               ; preds = %23
  call void @llvm.lifetime.start.p0(i64 4, ptr %12) #10
  %27 = load ptr, ptr %7, align 8
  call void @appendPQExpBufferStr(ptr noundef %27, ptr noundef @.str.642)
  %28 = load ptr, ptr %4, align 8
  %29 = call ptr @GetConnection(ptr noundef %28)
  %30 = load ptr, ptr %7, align 8
  %31 = load ptr, ptr %9, align 8
  %32 = getelementptr inbounds nuw %struct.SimpleStringListCell, ptr %31, i32 0, i32 2
  %33 = getelementptr inbounds [0 x i8], ptr %32, i64 0, i64 0
  %34 = call zeroext i1 @processSQLNamePattern(ptr noundef %29, ptr noundef %30, ptr noundef %33, i1 noundef zeroext false, i1 noundef zeroext false, ptr noundef null, ptr noundef @.str.643, ptr noundef null, ptr noundef null, ptr noundef null, ptr noundef %12)
  %35 = load i32, ptr %12, align 4
  %36 = icmp sgt i32 %35, 0
  br i1 %36, label %37, label %44

37:                                               ; preds = %26
  br label %38

38:                                               ; preds = %37
  %39 = load ptr, ptr %9, align 8
  %40 = getelementptr inbounds nuw %struct.SimpleStringListCell, ptr %39, i32 0, i32 2
  %41 = getelementptr inbounds [0 x i8], ptr %40, i64 0, i64 0
  call void (i32, i32, ptr, ...) @pg_log_generic(i32 noundef 4, i32 noundef 0, ptr noundef @.str.635, ptr noundef %41)
  call void @exit_nicely(i32 noundef 1) #12
  unreachable

42:                                               ; No predecessors!
  br label %43

43:                                               ; preds = %42
  br label %44

44:                                               ; preds = %43, %26
  %45 = load ptr, ptr %4, align 8
  %46 = load ptr, ptr %7, align 8
  %47 = getelementptr inbounds nuw %struct.PQExpBufferData, ptr %46, i32 0, i32 0
  %48 = load ptr, ptr %47, align 8
  %49 = call ptr @ExecuteSqlQuery(ptr noundef %45, ptr noundef %48, i32 noundef 2)
  store ptr %49, ptr %8, align 8
  %50 = load ptr, ptr %8, align 8
  %51 = call i32 @PQntuples(ptr noundef %50)
  %52 = icmp eq i32 %51, 0
  br i1 %52, label %53, label %60

53:                                               ; preds = %44
  br label %54

54:                                               ; preds = %53
  %55 = load ptr, ptr %9, align 8
  %56 = getelementptr inbounds nuw %struct.SimpleStringListCell, ptr %55, i32 0, i32 2
  %57 = getelementptr inbounds [0 x i8], ptr %56, i64 0, i64 0
  call void (i32, i32, ptr, ...) @pg_log_generic(i32 noundef 4, i32 noundef 0, ptr noundef @.str.644, ptr noundef %57)
  call void @exit_nicely(i32 noundef 1) #12
  unreachable

58:                                               ; No predecessors!
  br label %59

59:                                               ; preds = %58
  br label %60

60:                                               ; preds = %59, %44
  store i32 0, ptr %10, align 4
  br label %61

61:                                               ; preds = %73, %60
  %62 = load i32, ptr %10, align 4
  %63 = load ptr, ptr %8, align 8
  %64 = call i32 @PQntuples(ptr noundef %63)
  %65 = icmp slt i32 %62, %64
  br i1 %65, label %66, label %76

66:                                               ; preds = %61
  %67 = load ptr, ptr %6, align 8
  %68 = load ptr, ptr %8, align 8
  %69 = load i32, ptr %10, align 4
  %70 = call ptr @PQgetvalue(ptr noundef %68, i32 noundef %69, i32 noundef 0)
  %71 = call i64 @strtoul(ptr noundef %70, ptr noundef null, i32 noundef 10) #10
  %72 = trunc i64 %71 to i32
  call void @simple_oid_list_append(ptr noundef %67, i32 noundef %72)
  br label %73

73:                                               ; preds = %66
  %74 = load i32, ptr %10, align 4
  %75 = add i32 %74, 1
  store i32 %75, ptr %10, align 4
  br label %61, !llvm.loop !14

76:                                               ; preds = %61
  %77 = load ptr, ptr %8, align 8
  call void @PQclear(ptr noundef %77)
  %78 = load ptr, ptr %7, align 8
  call void @resetPQExpBuffer(ptr noundef %78)
  call void @llvm.lifetime.end.p0(i64 4, ptr %12) #10
  br label %79

79:                                               ; preds = %76
  %80 = load ptr, ptr %9, align 8
  %81 = getelementptr inbounds nuw %struct.SimpleStringListCell, ptr %80, i32 0, i32 0
  %82 = load ptr, ptr %81, align 8
  store ptr %82, ptr %9, align 8
  br label %23, !llvm.loop !15

83:                                               ; preds = %23
  %84 = load ptr, ptr %7, align 8
  call void @destroyPQExpBuffer(ptr noundef %84)
  store i32 0, ptr %11, align 4
  br label %85

85:                                               ; preds = %83, %17
  call void @llvm.lifetime.end.p0(i64 4, ptr %10) #10
  call void @llvm.lifetime.end.p0(i64 8, ptr %9) #10
  call void @llvm.lifetime.end.p0(i64 8, ptr %8) #10
  call void @llvm.lifetime.end.p0(i64 8, ptr %7) #10
  %86 = load i32, ptr %11, align 4
  switch i32 %86, label %88 [
    i32 0, label %87
    i32 1, label %87
  ]

87:                                               ; preds = %85, %85
  ret void

88:                                               ; preds = %85
  unreachable
}