; Function Attrs: nounwind uwtable
define internal fastcc void @expand_foreign_server_name_patterns(ptr noundef %0) unnamed_addr #5 {
  %2 = alloca i32, align 4
  %3 = load ptr, ptr @foreign_servers_include_patterns, align 8
  %4 = icmp eq ptr %3, null
  br i1 %4, label %27, label %5

5:                                                ; preds = %1
  %6 = tail call ptr @createPQExpBuffer() #14
  %.0213 = load ptr, ptr @foreign_servers_include_patterns, align 8
  %.not4 = icmp eq ptr %.0213, null
  br i1 %.not4, label %._crit_edge8, label %.lr.ph7

.lr.ph7:                                          ; preds = %5, %._crit_edge
  %.0215 = phi ptr [ %.021, %._crit_edge ], [ %.0213, %5 ]
  call void @llvm.lifetime.start.p0(i64 4, ptr nonnull %2) #14
  call void @appendPQExpBufferStr(ptr noundef %6, ptr noundef nonnull @.str.642) #14
  %7 = call ptr @GetConnection(ptr noundef %0) #14
  %8 = getelementptr inbounds nuw i8, ptr %.0215, i64 9
  %9 = call zeroext i1 @processSQLNamePattern(ptr noundef %7, ptr noundef %6, ptr noundef nonnull %8, i1 noundef zeroext false, i1 noundef zeroext false, ptr noundef null, ptr noundef nonnull @.str.643, ptr noundef null, ptr noundef null, ptr noundef null, ptr noundef nonnull %2) #14
  %10 = load i32, ptr %2, align 4
  %11 = icmp sgt i32 %10, 0
  br i1 %11, label %12, label %13

12:                                               ; preds = %.lr.ph7
  call void (i32, i32, ptr, ...) @pg_log_generic(i32 noundef 4, i32 noundef 0, ptr noundef nonnull @.str.635, ptr noundef nonnull %8) #14
  call void @exit_nicely(i32 noundef 1) #16
  unreachable

13:                                               ; preds = %.lr.ph7
  %14 = load ptr, ptr %6, align 8
  %15 = call ptr @ExecuteSqlQuery(ptr noundef %0, ptr noundef %14, i32 noundef 2) #14
  %16 = call i32 @PQntuples(ptr noundef %15) #14
  %17 = icmp eq i32 %16, 0
  br i1 %17, label %20, label %.preheader

.preheader:                                       ; preds = %13
  %18 = call i32 @PQntuples(ptr noundef %15) #14
  %19 = icmp sgt i32 %18, 0
  br i1 %19, label %.lr.ph, label %._crit_edge

20:                                               ; preds = %13
  call void (i32, i32, ptr, ...) @pg_log_generic(i32 noundef 4, i32 noundef 0, ptr noundef nonnull @.str.644, ptr noundef nonnull %8) #14
  call void @exit_nicely(i32 noundef 1) #16
  unreachable

.lr.ph:                                           ; preds = %.preheader, %.lr.ph
  %.02 = phi i32 [ %24, %.lr.ph ], [ 0, %.preheader ]
  %21 = call ptr @PQgetvalue(ptr noundef %15, i32 noundef %.02, i32 noundef 0) #14
  %22 = call i64 @strtoul(ptr noundef captures(none) %21, ptr noundef null, i32 noundef 10) #14
  %23 = trunc i64 %22 to i32
  call void @simple_oid_list_append(ptr noundef nonnull @foreign_servers_include_oids, i32 noundef %23) #14
  %24 = add nuw nsw i32 %.02, 1
  %25 = call i32 @PQntuples(ptr noundef %15) #14
  %26 = icmp slt i32 %24, %25
  br i1 %26, label %.lr.ph, label %._crit_edge, !llvm.loop !33

._crit_edge:                                      ; preds = %.lr.ph, %.preheader
  call void @PQclear(ptr noundef %15) #14
  call void @resetPQExpBuffer(ptr noundef nonnull %6) #14
  call void @llvm.lifetime.end.p0(i64 4, ptr nonnull %2) #14
  %.021 = load ptr, ptr %.0215, align 8
  %.not = icmp eq ptr %.021, null
  br i1 %.not, label %._crit_edge8, label %.lr.ph7, !llvm.loop !34

._crit_edge8:                                     ; preds = %._crit_edge, %5
  call void @destroyPQExpBuffer(ptr noundef %6) #14
  br label %27

27:                                               ; preds = %1, %._crit_edge8
  ret void
}